ARM GAS  C:\Users\Simio\AppData\Local\Temp\ccTFn8kf.s 			page 1


   1              		.cpu cortex-m4
   2              		.arch armv7e-m
   3              		.fpu fpv4-sp-d16
   4              		.eabi_attribute 27, 1
   5              		.eabi_attribute 28, 1
   6              		.eabi_attribute 20, 1
   7              		.eabi_attribute 21, 1
   8              		.eabi_attribute 23, 3
   9              		.eabi_attribute 24, 1
  10              		.eabi_attribute 25, 1
  11              		.eabi_attribute 26, 1
  12              		.eabi_attribute 30, 1
  13              		.eabi_attribute 34, 1
  14              		.eabi_attribute 18, 4
  15              		.file	"encoder.cpp"
  16              		.text
  17              	.Ltext0:
  18              		.cfi_sections	.debug_frame
  19              		.file 1 "Drivers/CPP/Src/encoder.cpp"
  20              		.section	.rodata.readEncoder.str1.4,"aMS",%progbits,1
  21              		.align	2
  22              	.LC0:
  23 0000 706F7765 		.ascii	"power on\000"
  23      72206F6E 
  23      00
  24 0009 000000   		.align	2
  25              	.LC1:
  26 000c 69646C65 		.ascii	"idle\000"
  26      00
  27 0011 000000   		.align	2
  28              	.LC2:
  29 0014 454E434F 		.ascii	"ENCODERA rising\000"
  29      44455241 
  29      20726973 
  29      696E6700 
  30              		.align	2
  31              	.LC3:
  32 0024 77616974 		.ascii	"wait for ENCODERB\000"
  32      20666F72 
  32      20454E43 
  32      4F444552 
  32      4200
  33 0036 0000     		.align	2
  34              	.LC4:
  35 0038 454E434F 		.ascii	"ENCODERB falling\000"
  35      44455242 
  35      2066616C 
  35      6C696E67 
  35      00
  36 0049 000000   		.align	2
  37              	.LC5:
  38 004c 77616974 		.ascii	"wait for ENCODERA\000"
  38      20666F72 
  38      20454E43 
  38      4F444552 
  38      4100
  39 005e 0000     		.align	2
ARM GAS  C:\Users\Simio\AppData\Local\Temp\ccTFn8kf.s 			page 2


  40              	.LC6:
  41 0060 636F756E 		.ascii	"count up\000"
  41      74207570 
  41      00
  42 0069 000000   		.align	2
  43              	.LC7:
  44 006c 636F756E 		.ascii	"count down\000"
  44      7420646F 
  44      776E00
  45 0077 00       		.align	2
  46              	.LC8:
  47 0078 6E6F6E65 		.ascii	"none\000"
  47      00
  48              		.section	.text.readEncoder,"ax",%progbits
  49              		.align	1
  50              		.global	readEncoder
  51              		.syntax unified
  52              		.thumb
  53              		.thumb_func
  55              	readEncoder:
  56              	.LVL0:
  57              	.LFB142:
   1:Drivers/CPP/Src/encoder.cpp **** /**
   2:Drivers/CPP/Src/encoder.cpp ****   ******************************************************************************
   3:Drivers/CPP/Src/encoder.cpp ****   * @file    adc.c
   4:Drivers/CPP/Src/encoder.cpp ****   * @brief   This file provides code for the configuration
   5:Drivers/CPP/Src/encoder.cpp ****   *          of the ADC instances.
   6:Drivers/CPP/Src/encoder.cpp ****   ******************************************************************************
   7:Drivers/CPP/Src/encoder.cpp ****   * @attention
   8:Drivers/CPP/Src/encoder.cpp ****   *
   9:Drivers/CPP/Src/encoder.cpp ****   * <h2><center>&copy; Copyright (c) 2021 STMicroelectronics.
  10:Drivers/CPP/Src/encoder.cpp ****   * All rights reserved.</center></h2>
  11:Drivers/CPP/Src/encoder.cpp ****   *
  12:Drivers/CPP/Src/encoder.cpp ****   * This software component is licensed by ST under BSD 3-Clause license,
  13:Drivers/CPP/Src/encoder.cpp ****   * the "License"; You may not use this file except in compliance with the
  14:Drivers/CPP/Src/encoder.cpp ****   * License. You may obtain a copy of the License at:
  15:Drivers/CPP/Src/encoder.cpp ****   *                        opensource.org/licenses/BSD-3-Clause
  16:Drivers/CPP/Src/encoder.cpp ****   *
  17:Drivers/CPP/Src/encoder.cpp ****   ******************************************************************************
  18:Drivers/CPP/Src/encoder.cpp ****   */
  19:Drivers/CPP/Src/encoder.cpp **** 
  20:Drivers/CPP/Src/encoder.cpp **** /* Includes ------------------------------------------------------------------*/
  21:Drivers/CPP/Src/encoder.cpp **** #include "encoder.h"
  22:Drivers/CPP/Src/encoder.cpp **** #include <string.h>
  23:Drivers/CPP/Src/encoder.cpp **** #include <stdio.h>
  24:Drivers/CPP/Src/encoder.cpp **** #include <stdlib.h>
  25:Drivers/CPP/Src/encoder.cpp **** #include <stdbool.h>
  26:Drivers/CPP/Src/encoder.cpp **** 
  27:Drivers/CPP/Src/encoder.cpp **** int readEncoder(GPIO_TypeDef* PORT_A, uint16_t PIN_A , GPIO_TypeDef* PORT_B, uint16_t PIN_B,int upp
  58              		.loc 1 27 130 view -0
  59              		.cfi_startproc
  60              		@ args = 8, pretend = 0, frame = 0
  61              		@ frame_needed = 0, uses_anonymous_args = 0
  62              		.loc 1 27 130 is_stmt 0 view .LVU1
  63 0000 2DE9F047 		push	{r4, r5, r6, r7, r8, r9, r10, lr}
  64              	.LCFI0:
  65              		.cfi_def_cfa_offset 32
ARM GAS  C:\Users\Simio\AppData\Local\Temp\ccTFn8kf.s 			page 3


  66              		.cfi_offset 4, -32
  67              		.cfi_offset 5, -28
  68              		.cfi_offset 6, -24
  69              		.cfi_offset 7, -20
  70              		.cfi_offset 8, -16
  71              		.cfi_offset 9, -12
  72              		.cfi_offset 10, -8
  73              		.cfi_offset 14, -4
  74 0004 9146     		mov	r9, r2
  75 0006 9A46     		mov	r10, r3
  76 0008 089F     		ldr	r7, [sp, #32]
  77 000a 099E     		ldr	r6, [sp, #36]
  28:Drivers/CPP/Src/encoder.cpp **** 	static uint8_t ENCODERA =0;
  78              		.loc 1 28 2 is_stmt 1 view .LVU2
  29:Drivers/CPP/Src/encoder.cpp **** 	static uint8_t ENCODERB =0;
  79              		.loc 1 29 2 view .LVU3
  30:Drivers/CPP/Src/encoder.cpp **** 	static int encoder_val=0;
  80              		.loc 1 30 2 view .LVU4
  31:Drivers/CPP/Src/encoder.cpp **** 	
  32:Drivers/CPP/Src/encoder.cpp **** 	ENCODERA=(ENCODERA<<1)|HAL_GPIO_ReadPin(PORT_A,PIN_A);
  81              		.loc 1 32 2 view .LVU5
  82              		.loc 1 32 12 is_stmt 0 view .LVU6
  83 000c 3D4C     		ldr	r4, .L19
  84 000e 2578     		ldrb	r5, [r4]	@ zero_extendqisi2
  85              		.loc 1 32 20 view .LVU7
  86 0010 6D00     		lsls	r5, r5, #1
  87              		.loc 1 32 41 view .LVU8
  88 0012 FFF7FEFF 		bl	HAL_GPIO_ReadPin
  89              	.LVL1:
  90              		.loc 1 32 24 view .LVU9
  91 0016 2843     		orrs	r0, r0, r5
  92              		.loc 1 32 10 view .LVU10
  93 0018 2070     		strb	r0, [r4]
  33:Drivers/CPP/Src/encoder.cpp **** 	ENCODERB=(ENCODERB<<1)|HAL_GPIO_ReadPin(PORT_B,PIN_B);
  94              		.loc 1 33 2 is_stmt 1 view .LVU11
  95              		.loc 1 33 12 is_stmt 0 view .LVU12
  96 001a DFF82081 		ldr	r8, .L19+56
  97 001e 98F80050 		ldrb	r5, [r8]	@ zero_extendqisi2
  98              		.loc 1 33 20 view .LVU13
  99 0022 6D00     		lsls	r5, r5, #1
 100              		.loc 1 33 41 view .LVU14
 101 0024 5146     		mov	r1, r10
 102 0026 4846     		mov	r0, r9
 103 0028 FFF7FEFF 		bl	HAL_GPIO_ReadPin
 104              	.LVL2:
 105              		.loc 1 33 24 view .LVU15
 106 002c 2843     		orrs	r0, r0, r5
 107 002e C0B2     		uxtb	r0, r0
 108              		.loc 1 33 10 view .LVU16
 109 0030 88F80000 		strb	r0, [r8]
  34:Drivers/CPP/Src/encoder.cpp **** 	
  35:Drivers/CPP/Src/encoder.cpp **** 	bool ENCODERA_rising_edge =		(ENCODERA&0x0F)==3;
 110              		.loc 1 35 2 is_stmt 1 view .LVU17
 111              		.loc 1 35 40 is_stmt 0 view .LVU18
 112 0034 2378     		ldrb	r3, [r4]	@ zero_extendqisi2
 113              	.LVL3:
  36:Drivers/CPP/Src/encoder.cpp **** 	bool ENCODERA_falling_edge=	  (ENCODERA&0x0F)==14;
ARM GAS  C:\Users\Simio\AppData\Local\Temp\ccTFn8kf.s 			page 4


 114              		.loc 1 36 2 is_stmt 1 view .LVU19
  37:Drivers/CPP/Src/encoder.cpp **** 	bool ENCODERB_rising_edge =		(ENCODERB&0x0F)==3;
 115              		.loc 1 37 2 view .LVU20
  38:Drivers/CPP/Src/encoder.cpp **** 	bool ENCODERB_falling_edge=	  (ENCODERB&0x0F)==14;
 116              		.loc 1 38 2 view .LVU21
  39:Drivers/CPP/Src/encoder.cpp **** 	
  40:Drivers/CPP/Src/encoder.cpp **** 	static const char * event;
 117              		.loc 1 40 2 view .LVU22
  41:Drivers/CPP/Src/encoder.cpp **** 	static const char * state;
 118              		.loc 1 41 2 view .LVU23
  42:Drivers/CPP/Src/encoder.cpp **** 	static bool iniOK=false;
 119              		.loc 1 42 2 view .LVU24
  43:Drivers/CPP/Src/encoder.cpp **** 	
  44:Drivers/CPP/Src/encoder.cpp **** 	if(!iniOK)																														{event="power on";											  state="idle";}
 120              		.loc 1 44 2 view .LVU25
 121              		.loc 1 44 5 is_stmt 0 view .LVU26
 122 0036 344A     		ldr	r2, .L19+4
 123 0038 1278     		ldrb	r2, [r2]	@ zero_extendqisi2
 124              		.loc 1 44 2 view .LVU27
 125 003a 02BB     		cbnz	r2, .L2
 126              		.loc 1 44 43 is_stmt 1 discriminator 1 view .LVU28
 127              		.loc 1 44 48 is_stmt 0 discriminator 1 view .LVU29
 128 003c 334B     		ldr	r3, .L19+8
 129              	.LVL4:
 130              		.loc 1 44 48 discriminator 1 view .LVU30
 131 003e 344A     		ldr	r2, .L19+12
 132 0040 1A60     		str	r2, [r3]
 133              		.loc 1 44 73 is_stmt 1 discriminator 1 view .LVU31
 134              		.loc 1 44 78 is_stmt 0 discriminator 1 view .LVU32
 135 0042 344B     		ldr	r3, .L19+16
 136 0044 344A     		ldr	r2, .L19+20
 137 0046 1A60     		str	r2, [r3]
 138              	.LVL5:
 139              	.L3:
  45:Drivers/CPP/Src/encoder.cpp **** 	else if (state_is("idle")&&ENCODERA_rising_edge)											{event="ENCODERA rising";											sta
  46:Drivers/CPP/Src/encoder.cpp **** 	else if (state_is("idle")&&ENCODERB_falling_edge)											{event="ENCODERB falling";											s
  47:Drivers/CPP/Src/encoder.cpp **** 	else if (state_is("wait for ENCODERB")&&ENCODERB_rising_edge)					{event="count up";											  s
  48:Drivers/CPP/Src/encoder.cpp **** 	else if (state_is("wait for ENCODERA")&&ENCODERA_falling_edge)				{event="count down";											s
  49:Drivers/CPP/Src/encoder.cpp **** 	else 																																	{event="none";}
  50:Drivers/CPP/Src/encoder.cpp **** 	
  51:Drivers/CPP/Src/encoder.cpp **** 	if(event_occured("count up")) 	encoder_val++;
 140              		.loc 1 51 2 is_stmt 1 view .LVU33
 141              		.loc 1 51 5 is_stmt 0 view .LVU34
 142 0048 304B     		ldr	r3, .L19+8
 143 004a 1B68     		ldr	r3, [r3]
 144 004c 334A     		ldr	r2, .L19+24
 145              		.loc 1 51 2 view .LVU35
 146 004e 9342     		cmp	r3, r2
 147 0050 4ED0     		beq	.L13
 148              	.L8:
  52:Drivers/CPP/Src/encoder.cpp **** 	if(event_occured("count down")) encoder_val--;
 149              		.loc 1 52 2 is_stmt 1 view .LVU36
 150              		.loc 1 52 5 is_stmt 0 view .LVU37
 151 0052 334A     		ldr	r2, .L19+28
 152              		.loc 1 52 2 view .LVU38
 153 0054 9342     		cmp	r3, r2
 154 0056 50D0     		beq	.L14
ARM GAS  C:\Users\Simio\AppData\Local\Temp\ccTFn8kf.s 			page 5


 155              	.L9:
  53:Drivers/CPP/Src/encoder.cpp **** 	
  54:Drivers/CPP/Src/encoder.cpp **** 	if(encoder_val > upperboundary) encoder_val=upperboundary;
 156              		.loc 1 54 2 is_stmt 1 view .LVU39
 157              		.loc 1 54 17 is_stmt 0 view .LVU40
 158 0058 324B     		ldr	r3, .L19+32
 159 005a 1B68     		ldr	r3, [r3]
 160              		.loc 1 54 2 view .LVU41
 161 005c BB42     		cmp	r3, r7
 162 005e 01DD     		ble	.L10
 163              		.loc 1 54 34 is_stmt 1 discriminator 1 view .LVU42
 164              		.loc 1 54 45 is_stmt 0 discriminator 1 view .LVU43
 165 0060 304B     		ldr	r3, .L19+32
 166 0062 1F60     		str	r7, [r3]
 167              	.L10:
  55:Drivers/CPP/Src/encoder.cpp **** 	if(encoder_val < lowerboundary)	encoder_val=lowerboundary;
 168              		.loc 1 55 2 is_stmt 1 view .LVU44
 169              		.loc 1 55 17 is_stmt 0 view .LVU45
 170 0064 2F4B     		ldr	r3, .L19+32
 171 0066 1B68     		ldr	r3, [r3]
 172              		.loc 1 55 2 view .LVU46
 173 0068 B342     		cmp	r3, r6
 174 006a 01DA     		bge	.L11
 175              		.loc 1 55 34 is_stmt 1 discriminator 1 view .LVU47
 176              		.loc 1 55 45 is_stmt 0 discriminator 1 view .LVU48
 177 006c 2D4B     		ldr	r3, .L19+32
 178 006e 1E60     		str	r6, [r3]
 179              	.L11:
  56:Drivers/CPP/Src/encoder.cpp **** 
  57:Drivers/CPP/Src/encoder.cpp **** 	
  58:Drivers/CPP/Src/encoder.cpp **** 	iniOK=true;
 180              		.loc 1 58 2 is_stmt 1 view .LVU49
 181              		.loc 1 58 7 is_stmt 0 view .LVU50
 182 0070 254B     		ldr	r3, .L19+4
 183 0072 0122     		movs	r2, #1
 184 0074 1A70     		strb	r2, [r3]
  59:Drivers/CPP/Src/encoder.cpp **** 	
  60:Drivers/CPP/Src/encoder.cpp **** 	return encoder_val;
 185              		.loc 1 60 2 is_stmt 1 view .LVU51
  61:Drivers/CPP/Src/encoder.cpp **** }
 186              		.loc 1 61 1 is_stmt 0 view .LVU52
 187 0076 2B4B     		ldr	r3, .L19+32
 188 0078 1868     		ldr	r0, [r3]
 189 007a BDE8F087 		pop	{r4, r5, r6, r7, r8, r9, r10, pc}
 190              	.LVL6:
 191              	.L2:
 192              		.loc 1 61 1 view .LVU53
 193 007e 03F00F03 		and	r3, r3, #15
 194              	.LVL7:
 195              		.loc 1 61 1 view .LVU54
 196 0082 00F00F00 		and	r0, r0, #15
 197              	.LVL8:
  45:Drivers/CPP/Src/encoder.cpp **** 	else if (state_is("idle")&&ENCODERB_falling_edge)											{event="ENCODERB falling";											s
 198              		.loc 1 45 7 is_stmt 1 view .LVU55
  45:Drivers/CPP/Src/encoder.cpp **** 	else if (state_is("idle")&&ENCODERB_falling_edge)											{event="ENCODERB falling";											s
 199              		.loc 1 45 11 is_stmt 0 view .LVU56
 200 0086 234A     		ldr	r2, .L19+16
ARM GAS  C:\Users\Simio\AppData\Local\Temp\ccTFn8kf.s 			page 6


 201 0088 1268     		ldr	r2, [r2]
 202 008a 2349     		ldr	r1, .L19+20
  45:Drivers/CPP/Src/encoder.cpp **** 	else if (state_is("idle")&&ENCODERB_falling_edge)											{event="ENCODERB falling";											s
 203              		.loc 1 45 7 view .LVU57
 204 008c 8A42     		cmp	r2, r1
 205 008e 0BD0     		beq	.L15
 206              	.L4:
  46:Drivers/CPP/Src/encoder.cpp **** 	else if (state_is("wait for ENCODERB")&&ENCODERB_rising_edge)					{event="count up";											  s
 207              		.loc 1 46 7 is_stmt 1 view .LVU58
 208 0090 8A42     		cmp	r2, r1
 209 0092 12D0     		beq	.L16
 210              	.L5:
  47:Drivers/CPP/Src/encoder.cpp **** 	else if (state_is("wait for ENCODERA")&&ENCODERA_falling_edge)				{event="count down";											s
 211              		.loc 1 47 7 view .LVU59
  47:Drivers/CPP/Src/encoder.cpp **** 	else if (state_is("wait for ENCODERA")&&ENCODERA_falling_edge)				{event="count down";											s
 212              		.loc 1 47 11 is_stmt 0 view .LVU60
 213 0094 2449     		ldr	r1, .L19+36
  47:Drivers/CPP/Src/encoder.cpp **** 	else if (state_is("wait for ENCODERA")&&ENCODERA_falling_edge)				{event="count down";											s
 214              		.loc 1 47 7 view .LVU61
 215 0096 8A42     		cmp	r2, r1
 216 0098 18D0     		beq	.L17
 217              	.L6:
  48:Drivers/CPP/Src/encoder.cpp **** 	else 																																	{event="none";}
 218              		.loc 1 48 7 is_stmt 1 view .LVU62
  48:Drivers/CPP/Src/encoder.cpp **** 	else 																																	{event="none";}
 219              		.loc 1 48 11 is_stmt 0 view .LVU63
 220 009a 2449     		ldr	r1, .L19+40
  48:Drivers/CPP/Src/encoder.cpp **** 	else 																																	{event="none";}
 221              		.loc 1 48 7 view .LVU64
 222 009c 8A42     		cmp	r2, r1
 223 009e 1ED0     		beq	.L18
 224              	.L7:
  49:Drivers/CPP/Src/encoder.cpp **** 	
 225              		.loc 1 49 41 is_stmt 1 view .LVU65
  49:Drivers/CPP/Src/encoder.cpp **** 	
 226              		.loc 1 49 46 is_stmt 0 view .LVU66
 227 00a0 1A4B     		ldr	r3, .L19+8
 228 00a2 234A     		ldr	r2, .L19+44
 229 00a4 1A60     		str	r2, [r3]
 230 00a6 CFE7     		b	.L3
 231              	.L15:
  45:Drivers/CPP/Src/encoder.cpp **** 	else if (state_is("idle")&&ENCODERB_falling_edge)											{event="ENCODERB falling";											s
 232              		.loc 1 45 27 discriminator 1 view .LVU67
 233 00a8 032B     		cmp	r3, #3
 234 00aa F1D1     		bne	.L4
  45:Drivers/CPP/Src/encoder.cpp **** 	else if (state_is("idle")&&ENCODERB_falling_edge)											{event="ENCODERB falling";											s
 235              		.loc 1 45 62 is_stmt 1 discriminator 2 view .LVU68
  45:Drivers/CPP/Src/encoder.cpp **** 	else if (state_is("idle")&&ENCODERB_falling_edge)											{event="ENCODERB falling";											s
 236              		.loc 1 45 67 is_stmt 0 discriminator 2 view .LVU69
 237 00ac 174B     		ldr	r3, .L19+8
 238 00ae 214A     		ldr	r2, .L19+48
 239 00b0 1A60     		str	r2, [r3]
  45:Drivers/CPP/Src/encoder.cpp **** 	else if (state_is("idle")&&ENCODERB_falling_edge)											{event="ENCODERB falling";											s
 240              		.loc 1 45 97 is_stmt 1 discriminator 2 view .LVU70
  45:Drivers/CPP/Src/encoder.cpp **** 	else if (state_is("idle")&&ENCODERB_falling_edge)											{event="ENCODERB falling";											s
 241              		.loc 1 45 102 is_stmt 0 discriminator 2 view .LVU71
 242 00b2 184B     		ldr	r3, .L19+16
ARM GAS  C:\Users\Simio\AppData\Local\Temp\ccTFn8kf.s 			page 7


 243 00b4 1C4A     		ldr	r2, .L19+36
 244 00b6 1A60     		str	r2, [r3]
 245 00b8 C6E7     		b	.L3
 246              	.L16:
  46:Drivers/CPP/Src/encoder.cpp **** 	else if (state_is("wait for ENCODERB")&&ENCODERB_rising_edge)					{event="count up";											  s
 247              		.loc 1 46 27 discriminator 1 view .LVU72
 248 00ba 0E28     		cmp	r0, #14
 249 00bc EAD1     		bne	.L5
  46:Drivers/CPP/Src/encoder.cpp **** 	else if (state_is("wait for ENCODERB")&&ENCODERB_rising_edge)					{event="count up";											  s
 250              		.loc 1 46 63 is_stmt 1 discriminator 2 view .LVU73
  46:Drivers/CPP/Src/encoder.cpp **** 	else if (state_is("wait for ENCODERB")&&ENCODERB_rising_edge)					{event="count up";											  s
 251              		.loc 1 46 68 is_stmt 0 discriminator 2 view .LVU74
 252 00be 134B     		ldr	r3, .L19+8
 253 00c0 1D4A     		ldr	r2, .L19+52
 254 00c2 1A60     		str	r2, [r3]
  46:Drivers/CPP/Src/encoder.cpp **** 	else if (state_is("wait for ENCODERB")&&ENCODERB_rising_edge)					{event="count up";											  s
 255              		.loc 1 46 99 is_stmt 1 discriminator 2 view .LVU75
  46:Drivers/CPP/Src/encoder.cpp **** 	else if (state_is("wait for ENCODERB")&&ENCODERB_rising_edge)					{event="count up";											  s
 256              		.loc 1 46 104 is_stmt 0 discriminator 2 view .LVU76
 257 00c4 134B     		ldr	r3, .L19+16
 258 00c6 194A     		ldr	r2, .L19+40
 259 00c8 1A60     		str	r2, [r3]
 260 00ca BDE7     		b	.L3
 261              	.L17:
  47:Drivers/CPP/Src/encoder.cpp **** 	else if (state_is("wait for ENCODERA")&&ENCODERA_falling_edge)				{event="count down";											s
 262              		.loc 1 47 40 discriminator 1 view .LVU77
 263 00cc 0328     		cmp	r0, #3
 264 00ce E4D1     		bne	.L6
  47:Drivers/CPP/Src/encoder.cpp **** 	else if (state_is("wait for ENCODERA")&&ENCODERA_falling_edge)				{event="count down";											s
 265              		.loc 1 47 69 is_stmt 1 discriminator 2 view .LVU78
  47:Drivers/CPP/Src/encoder.cpp **** 	else if (state_is("wait for ENCODERA")&&ENCODERA_falling_edge)				{event="count down";											s
 266              		.loc 1 47 74 is_stmt 0 discriminator 2 view .LVU79
 267 00d0 0E4B     		ldr	r3, .L19+8
 268 00d2 124A     		ldr	r2, .L19+24
 269 00d4 1A60     		str	r2, [r3]
  47:Drivers/CPP/Src/encoder.cpp **** 	else if (state_is("wait for ENCODERA")&&ENCODERA_falling_edge)				{event="count down";											s
 270              		.loc 1 47 99 is_stmt 1 discriminator 2 view .LVU80
  47:Drivers/CPP/Src/encoder.cpp **** 	else if (state_is("wait for ENCODERA")&&ENCODERA_falling_edge)				{event="count down";											s
 271              		.loc 1 47 104 is_stmt 0 discriminator 2 view .LVU81
 272 00d6 0F4B     		ldr	r3, .L19+16
 273 00d8 0F4A     		ldr	r2, .L19+20
 274 00da 1A60     		str	r2, [r3]
 275 00dc B4E7     		b	.L3
 276              	.L18:
  48:Drivers/CPP/Src/encoder.cpp **** 	else 																																	{event="none";}
 277              		.loc 1 48 40 discriminator 1 view .LVU82
 278 00de 0E2B     		cmp	r3, #14
 279 00e0 DED1     		bne	.L7
  48:Drivers/CPP/Src/encoder.cpp **** 	else 																																	{event="none";}
 280              		.loc 1 48 69 is_stmt 1 discriminator 2 view .LVU83
  48:Drivers/CPP/Src/encoder.cpp **** 	else 																																	{event="none";}
 281              		.loc 1 48 74 is_stmt 0 discriminator 2 view .LVU84
 282 00e2 0A4B     		ldr	r3, .L19+8
 283 00e4 0E4A     		ldr	r2, .L19+28
 284 00e6 1A60     		str	r2, [r3]
  48:Drivers/CPP/Src/encoder.cpp **** 	else 																																	{event="none";}
 285              		.loc 1 48 99 is_stmt 1 discriminator 2 view .LVU85
ARM GAS  C:\Users\Simio\AppData\Local\Temp\ccTFn8kf.s 			page 8


  48:Drivers/CPP/Src/encoder.cpp **** 	else 																																	{event="none";}
 286              		.loc 1 48 104 is_stmt 0 discriminator 2 view .LVU86
 287 00e8 0A4B     		ldr	r3, .L19+16
 288 00ea 0B4A     		ldr	r2, .L19+20
 289 00ec 1A60     		str	r2, [r3]
 290 00ee ABE7     		b	.L3
 291              	.L13:
  51:Drivers/CPP/Src/encoder.cpp **** 	if(event_occured("count down")) encoder_val--;
 292              		.loc 1 51 33 is_stmt 1 discriminator 1 view .LVU87
  51:Drivers/CPP/Src/encoder.cpp **** 	if(event_occured("count down")) encoder_val--;
 293              		.loc 1 51 44 is_stmt 0 discriminator 1 view .LVU88
 294 00f0 0C49     		ldr	r1, .L19+32
 295 00f2 0A68     		ldr	r2, [r1]
 296 00f4 0132     		adds	r2, r2, #1
 297 00f6 0A60     		str	r2, [r1]
 298 00f8 ABE7     		b	.L8
 299              	.L14:
  52:Drivers/CPP/Src/encoder.cpp **** 	
 300              		.loc 1 52 34 is_stmt 1 discriminator 1 view .LVU89
  52:Drivers/CPP/Src/encoder.cpp **** 	
 301              		.loc 1 52 45 is_stmt 0 discriminator 1 view .LVU90
 302 00fa 0A4A     		ldr	r2, .L19+32
 303 00fc 1368     		ldr	r3, [r2]
 304 00fe 013B     		subs	r3, r3, #1
 305 0100 1360     		str	r3, [r2]
 306 0102 A9E7     		b	.L9
 307              	.L20:
 308              		.align	2
 309              	.L19:
 310 0104 00000000 		.word	_ZZ11readEncoderE8ENCODERA
 311 0108 00000000 		.word	_ZZ11readEncoderE5iniOK
 312 010c 00000000 		.word	_ZZ11readEncoderE5event
 313 0110 00000000 		.word	.LC0
 314 0114 00000000 		.word	_ZZ11readEncoderE5state
 315 0118 0C000000 		.word	.LC1
 316 011c 60000000 		.word	.LC6
 317 0120 6C000000 		.word	.LC7
 318 0124 00000000 		.word	_ZZ11readEncoderE11encoder_val
 319 0128 24000000 		.word	.LC3
 320 012c 4C000000 		.word	.LC5
 321 0130 78000000 		.word	.LC8
 322 0134 14000000 		.word	.LC2
 323 0138 38000000 		.word	.LC4
 324 013c 00000000 		.word	_ZZ11readEncoderE8ENCODERB
 325              		.cfi_endproc
 326              	.LFE142:
 328              		.section	.bss._ZZ11readEncoderE5iniOK,"aw",%nobits
 331              	_ZZ11readEncoderE5iniOK:
 332 0000 00       		.space	1
 333              		.section	.bss._ZZ11readEncoderE5state,"aw",%nobits
 334              		.align	2
 337              	_ZZ11readEncoderE5state:
 338 0000 00000000 		.space	4
 339              		.section	.bss._ZZ11readEncoderE5event,"aw",%nobits
 340              		.align	2
 343              	_ZZ11readEncoderE5event:
 344 0000 00000000 		.space	4
ARM GAS  C:\Users\Simio\AppData\Local\Temp\ccTFn8kf.s 			page 9


 345              		.section	.bss._ZZ11readEncoderE11encoder_val,"aw",%nobits
 346              		.align	2
 349              	_ZZ11readEncoderE11encoder_val:
 350 0000 00000000 		.space	4
 351              		.section	.bss._ZZ11readEncoderE8ENCODERB,"aw",%nobits
 354              	_ZZ11readEncoderE8ENCODERB:
 355 0000 00       		.space	1
 356              		.section	.bss._ZZ11readEncoderE8ENCODERA,"aw",%nobits
 359              	_ZZ11readEncoderE8ENCODERA:
 360 0000 00       		.space	1
 361              		.text
 362              	.Letext0:
 363              		.file 2 "C:\\ST\\STM32CubeCLT_1.15.1\\GNU-tools-for-STM32\\bin\\../lib/gcc/arm-none-eabi/12.3.1/..
 364              		.file 3 "C:\\ST\\STM32CubeCLT_1.15.1\\GNU-tools-for-STM32\\bin\\../lib/gcc/arm-none-eabi/12.3.1/..
 365              		.file 4 "Drivers/CMSIS/Device/ST/STM32G4xx/Include/stm32g474xx.h"
 366              		.file 5 "C:\\ST\\STM32CubeCLT_1.15.1\\GNU-tools-for-STM32\\bin\\../lib/gcc/arm-none-eabi/12.3.1/in
 367              		.file 6 "Drivers/STM32G4xx_HAL_Driver/Inc/stm32g4xx_hal_gpio.h"
 368              		.file 7 "C:\\ST\\STM32CubeCLT_1.15.1\\GNU-tools-for-STM32\\bin\\../lib/gcc/arm-none-eabi/12.3.1/..
 369              		.file 8 "C:\\ST\\STM32CubeCLT_1.15.1\\GNU-tools-for-STM32\\bin\\../lib/gcc/arm-none-eabi/12.3.1/..
 370              		.file 9 "C:\\ST\\STM32CubeCLT_1.15.1\\GNU-tools-for-STM32\\bin\\../lib/gcc/arm-none-eabi/12.3.1/..
 371              		.file 10 "C:\\ST\\STM32CubeCLT_1.15.1\\GNU-tools-for-STM32\\bin\\../lib/gcc/arm-none-eabi/12.3.1/.
 372              		.file 11 "C:\\ST\\STM32CubeCLT_1.15.1\\GNU-tools-for-STM32\\bin\\../lib/gcc/arm-none-eabi/12.3.1/.
ARM GAS  C:\Users\Simio\AppData\Local\Temp\ccTFn8kf.s 			page 10


DEFINED SYMBOLS
                            *ABS*:00000000 encoder.cpp
C:\Users\Simio\AppData\Local\Temp\ccTFn8kf.s:21     .rodata.readEncoder.str1.4:00000000 $d
C:\Users\Simio\AppData\Local\Temp\ccTFn8kf.s:49     .text.readEncoder:00000000 $t
C:\Users\Simio\AppData\Local\Temp\ccTFn8kf.s:55     .text.readEncoder:00000000 readEncoder
C:\Users\Simio\AppData\Local\Temp\ccTFn8kf.s:310    .text.readEncoder:00000104 $d
C:\Users\Simio\AppData\Local\Temp\ccTFn8kf.s:359    .bss._ZZ11readEncoderE8ENCODERA:00000000 _ZZ11readEncoderE8ENCODERA
C:\Users\Simio\AppData\Local\Temp\ccTFn8kf.s:331    .bss._ZZ11readEncoderE5iniOK:00000000 _ZZ11readEncoderE5iniOK
C:\Users\Simio\AppData\Local\Temp\ccTFn8kf.s:343    .bss._ZZ11readEncoderE5event:00000000 _ZZ11readEncoderE5event
C:\Users\Simio\AppData\Local\Temp\ccTFn8kf.s:337    .bss._ZZ11readEncoderE5state:00000000 _ZZ11readEncoderE5state
C:\Users\Simio\AppData\Local\Temp\ccTFn8kf.s:349    .bss._ZZ11readEncoderE11encoder_val:00000000 _ZZ11readEncoderE11encoder_val
C:\Users\Simio\AppData\Local\Temp\ccTFn8kf.s:354    .bss._ZZ11readEncoderE8ENCODERB:00000000 _ZZ11readEncoderE8ENCODERB
C:\Users\Simio\AppData\Local\Temp\ccTFn8kf.s:332    .bss._ZZ11readEncoderE5iniOK:00000000 $d
C:\Users\Simio\AppData\Local\Temp\ccTFn8kf.s:334    .bss._ZZ11readEncoderE5state:00000000 $d
C:\Users\Simio\AppData\Local\Temp\ccTFn8kf.s:340    .bss._ZZ11readEncoderE5event:00000000 $d
C:\Users\Simio\AppData\Local\Temp\ccTFn8kf.s:346    .bss._ZZ11readEncoderE11encoder_val:00000000 $d
C:\Users\Simio\AppData\Local\Temp\ccTFn8kf.s:355    .bss._ZZ11readEncoderE8ENCODERB:00000000 $d
C:\Users\Simio\AppData\Local\Temp\ccTFn8kf.s:360    .bss._ZZ11readEncoderE8ENCODERA:00000000 $d

UNDEFINED SYMBOLS
HAL_GPIO_ReadPin
